; Function Attrs: mustprogress uwtable
define void @_ZN7rocksdb28IteratorSeekQueryTraceRecordC2ENS0_8SeekTypeEjONS_13PinnableSliceEm(ptr noundef nonnull align 8 dereferenceable(312) %this, i32 noundef %seek_type, i32 noundef %column_family_id, ptr noundef nonnull align 8 dereferenceable(89) %key, i64 noundef %timestamp) unnamed_addr #2 align 2 personality ptr @__gxx_personality_v0 {
entry:
  %timestamp_.i.i.i = getelementptr inbounds i8, ptr %this, i64 8
  store i64 %timestamp, ptr %timestamp_.i.i.i, align 8
  store ptr getelementptr inbounds ({ [9 x ptr] }, ptr @_ZTVN7rocksdb24IteratorQueryTraceRecordE, i64 0, i32 0, i64 2), ptr %this, align 8
  %lower_.i = getelementptr inbounds i8, ptr %this, i64 16
  store ptr @.str, ptr %lower_.i, align 8
  %size_.i.i.i = getelementptr inbounds i8, ptr %this, i64 24
  store i64 0, ptr %size_.i.i.i, align 8
  %0 = getelementptr inbounds i8, ptr %this, i64 32
  tail call void @_ZN7rocksdb9CleanableC2Ev(ptr noundef nonnull align 8 dereferenceable(32) %0)
  %self_space_.i.i = getelementptr inbounds i8, ptr %this, i64 64
  tail call void @_ZNSt7__cxx1112basic_stringIcSt11char_traitsIcESaIcEEC1Ev(ptr noundef nonnull align 8 dereferenceable(32) %self_space_.i.i) #17
  %pinned_.i.i = getelementptr inbounds i8, ptr %this, i64 104
  store i8 0, ptr %pinned_.i.i, align 8
  %buf_.i.i = getelementptr inbounds i8, ptr %this, i64 96
  store ptr %self_space_.i.i, ptr %buf_.i.i, align 8
  %upper_.i = getelementptr inbounds i8, ptr %this, i64 112
  store ptr @.str, ptr %upper_.i, align 8
  %size_.i.i2.i = getelementptr inbounds i8, ptr %this, i64 120
  store i64 0, ptr %size_.i.i2.i, align 8
  %1 = getelementptr inbounds i8, ptr %this, i64 128
  invoke void @_ZN7rocksdb9CleanableC2Ev(ptr noundef nonnull align 8 dereferenceable(32) %1)
          to label %_ZN7rocksdb24IteratorQueryTraceRecordC2Em.exit unwind label %lpad2.i

common.resume:                                    ; preds = %lpad, %lpad2.i
  %common.resume.op = phi { ptr, i32 } [ %2, %lpad2.i ], [ %3, %lpad ]
  resume { ptr, i32 } %common.resume.op

lpad2.i:                                          ; preds = %entry
  %2 = landingpad { ptr, i32 }
          cleanup
  tail call void @_ZNSt7__cxx1112basic_stringIcSt11char_traitsIcESaIcEED1Ev(ptr noundef nonnull align 8 dereferenceable(32) %self_space_.i.i) #17
  tail call void @_ZN7rocksdb9CleanableD2Ev(ptr noundef nonnull align 8 dereferenceable(32) %0) #17
  br label %common.resume

_ZN7rocksdb24IteratorQueryTraceRecordC2Em.exit:   ; preds = %entry
  %self_space_.i3.i = getelementptr inbounds i8, ptr %this, i64 160
  tail call void @_ZNSt7__cxx1112basic_stringIcSt11char_traitsIcESaIcEEC1Ev(ptr noundef nonnull align 8 dereferenceable(32) %self_space_.i3.i) #17
  %pinned_.i4.i = getelementptr inbounds i8, ptr %this, i64 200
  store i8 0, ptr %pinned_.i4.i, align 8
  %buf_.i5.i = getelementptr inbounds i8, ptr %this, i64 192
  store ptr %self_space_.i3.i, ptr %buf_.i5.i, align 8
  store ptr getelementptr inbounds ({ [12 x ptr] }, ptr @_ZTVN7rocksdb28IteratorSeekQueryTraceRecordE, i64 0, i32 0, i64 2), ptr %this, align 8
  %type_ = getelementptr inbounds i8, ptr %this, i64 208
  store i32 %seek_type, ptr %type_, align 8
  %cf_id_ = getelementptr inbounds i8, ptr %this, i64 212
  store i32 %column_family_id, ptr %cf_id_, align 4
  %key_ = getelementptr inbounds i8, ptr %this, i64 216
  invoke void @_ZN7rocksdb13PinnableSliceC1EOS0_(ptr noundef nonnull align 8 dereferenceable(89) %key_, ptr noundef nonnull align 8 dereferenceable(89) %key)
          to label %invoke.cont unwind label %lpad

invoke.cont:                                      ; preds = %_ZN7rocksdb24IteratorQueryTraceRecordC2Em.exit
  ret void

lpad:                                             ; preds = %_ZN7rocksdb24IteratorQueryTraceRecordC2Em.exit
  %3 = landingpad { ptr, i32 }
          cleanup
  tail call void @_ZN7rocksdb24IteratorQueryTraceRecordD2Ev(ptr noundef nonnull align 8 dereferenceable(208) %this) #17
  br label %common.resume
}